target datalayout = "e-m:e-p270:32:32-p271:32:32-p272:64:64-i64:64-i128:128-f80:128-n8:16:32:64-S128"
target triple = "x86_64-pc-linux-gnu"

; Function Attrs: inlinehint nounwind uwtable
define internal i32 @Abc_LitNotCond(i32 noundef %0, i32 noundef %1) #2 {
  %3 = alloca i32, align 4
  %4 = alloca i32, align 4
  store i32 %0, ptr %3, align 4, !tbaa !10
  store i32 %1, ptr %4, align 4, !tbaa !10
  %5 = load i32, ptr %3, align 4, !tbaa !10
  %6 = load i32, ptr %4, align 4, !tbaa !10
  %7 = icmp sgt i32 %6, 0
  %8 = zext i1 %7 to i32
  %9 = xor i32 %5, %8
  ret i32 %9
}

; Function Attrs: nounwind uwtable
define i32 @Gia_ManFindDivGate(ptr noundef %0, ptr noundef %1, i32 noundef %2, ptr noundef %3, ptr noundef %4, ptr noundef %5, ptr noundef %6, ptr noundef %7) #0 {
  %9 = alloca i32, align 4
  %10 = alloca ptr, align 8
  %11 = alloca ptr, align 8
  %12 = alloca i32, align 4
  %13 = alloca ptr, align 8
  %14 = alloca ptr, align 8
  %15 = alloca ptr, align 8
  %16 = alloca ptr, align 8
  %17 = alloca ptr, align 8
  %18 = alloca i32, align 4
  %19 = alloca i32, align 4
  %20 = alloca i32, align 4
  store ptr %0, ptr %10, align 8, !tbaa !150
  store ptr %1, ptr %11, align 8, !tbaa !80
  store i32 %2, ptr %12, align 4, !tbaa !10
  store ptr %3, ptr %13, align 8, !tbaa !125
  store ptr %4, ptr %14, align 8, !tbaa !125
  store ptr %5, ptr %15, align 8, !tbaa !125
  store ptr %6, ptr %16, align 8, !tbaa !125
  store ptr %7, ptr %17, align 8, !tbaa !76
  call void @llvm.lifetime.start.p0(i64 4, ptr %18) #14
  call void @llvm.lifetime.start.p0(i64 4, ptr %19) #14
  store i32 0, ptr %18, align 4, !tbaa !10
  br label %21

21:                                               ; preds = %69, %8
  %22 = load i32, ptr %18, align 4, !tbaa !10
  %23 = icmp slt i32 %22, 2
  br i1 %23, label %24, label %72

24:                                               ; preds = %21
  %25 = load ptr, ptr %10, align 8, !tbaa !150
  %26 = load i32, ptr %18, align 4, !tbaa !10
  %27 = sext i32 %26 to i64
  %28 = getelementptr inbounds ptr, ptr %25, i64 %27
  %29 = load ptr, ptr %28, align 8, !tbaa !76
  %30 = load ptr, ptr %10, align 8, !tbaa !150
  %31 = load i32, ptr %18, align 4, !tbaa !10
  %32 = icmp ne i32 %31, 0
  %33 = xor i1 %32, true
  %34 = zext i1 %33 to i32
  %35 = sext i32 %34 to i64
  %36 = getelementptr inbounds ptr, ptr %30, i64 %35
  %37 = load ptr, ptr %36, align 8, !tbaa !76
  %38 = load ptr, ptr %11, align 8, !tbaa !80
  %39 = load i32, ptr %12, align 4, !tbaa !10
  %40 = load ptr, ptr %13, align 8, !tbaa !125
  %41 = load i32, ptr %18, align 4, !tbaa !10
  %42 = sext i32 %41 to i64
  %43 = getelementptr inbounds ptr, ptr %40, i64 %42
  %44 = load ptr, ptr %43, align 8, !tbaa !12
  %45 = load ptr, ptr %14, align 8, !tbaa !125
  %46 = load i32, ptr %18, align 4, !tbaa !10
  %47 = sext i32 %46 to i64
  %48 = getelementptr inbounds ptr, ptr %45, i64 %47
  %49 = load ptr, ptr %48, align 8, !tbaa !12
  %50 = load ptr, ptr %15, align 8, !tbaa !125
  %51 = load i32, ptr %18, align 4, !tbaa !10
  %52 = sext i32 %51 to i64
  %53 = getelementptr inbounds ptr, ptr %50, i64 %52
  %54 = load ptr, ptr %53, align 8, !tbaa !12
  %55 = load ptr, ptr %16, align 8, !tbaa !125
  %56 = load i32, ptr %18, align 4, !tbaa !10
  %57 = sext i32 %56 to i64
  %58 = getelementptr inbounds ptr, ptr %55, i64 %57
  %59 = load ptr, ptr %58, align 8, !tbaa !12
  %60 = load ptr, ptr %17, align 8, !tbaa !76
  %61 = call i32 @Gia_ManFindDivGateInt(ptr noundef %29, ptr noundef %37, ptr noundef %38, i32 noundef %39, ptr noundef %44, ptr noundef %49, ptr noundef %54, ptr noundef %59, ptr noundef %60)
  store i32 %61, ptr %19, align 4, !tbaa !10
  %62 = load i32, ptr %19, align 4, !tbaa !10
  %63 = icmp sge i32 %62, 0
  br i1 %63, label %64, label %68

64:                                               ; preds = %24
  %65 = load i32, ptr %19, align 4, !tbaa !10
  %66 = load i32, ptr %18, align 4, !tbaa !10
  %67 = call i32 @Abc_LitNotCond(i32 noundef %65, i32 noundef %66)
  store i32 %67, ptr %9, align 4
  store i32 1, ptr %20, align 4
  br label %73

68:                                               ; preds = %24
  br label %69

69:                                               ; preds = %68
  %70 = load i32, ptr %18, align 4, !tbaa !10
  %71 = add nsw i32 %70, 1
  store i32 %71, ptr %18, align 4, !tbaa !10
  br label %21, !llvm.loop !181

72:                                               ; preds = %21
  store i32 -1, ptr %9, align 4
  store i32 1, ptr %20, align 4
  br label %73

73:                                               ; preds = %72, %64
  call void @llvm.lifetime.end.p0(i64 4, ptr %19) #14
  call void @llvm.lifetime.end.p0(i64 4, ptr %18) #14
  %74 = load i32, ptr %9, align 4
  ret i32 %74
}