; Function Attrs: nofree norecurse nosync nounwind memory(readwrite, inaccessiblemem: none) uwtable
define range(i32 -1, -2147483648) i32 @Gia_ManFindDivGate(ptr noundef readonly captures(none) %0, ptr noundef readonly captures(none) %1, i32 noundef %2, ptr noundef readonly captures(none) %3, ptr noundef readonly captures(none) %4, ptr noundef readonly captures(none) %5, ptr noundef readonly captures(none) %6, ptr noundef captures(none) %7) local_unnamed_addr #12 {
  br label %9

9:                                                ; preds = %8, %27
  %10 = phi i1 [ true, %8 ], [ false, %27 ]
  %11 = phi i32 [ 0, %8 ], [ 1, %27 ]
  %indvars.iv = phi i64 [ 0, %8 ], [ 1, %27 ]
  %12 = xor i64 %indvars.iv, 1
  %13 = getelementptr inbounds nuw ptr, ptr %0, i64 %12
  %14 = load ptr, ptr %13, align 8, !tbaa !78
  %15 = getelementptr inbounds nuw ptr, ptr %3, i64 %indvars.iv
  %16 = load ptr, ptr %15, align 8, !tbaa !69
  %17 = getelementptr inbounds nuw ptr, ptr %4, i64 %indvars.iv
  %18 = load ptr, ptr %17, align 8, !tbaa !69
  %19 = getelementptr inbounds nuw ptr, ptr %5, i64 %indvars.iv
  %20 = load ptr, ptr %19, align 8, !tbaa !69
  %21 = getelementptr inbounds nuw ptr, ptr %6, i64 %indvars.iv
  %22 = load ptr, ptr %21, align 8, !tbaa !69
  %23 = tail call i32 @Gia_ManFindDivGateInt(ptr poison, ptr noundef %14, ptr noundef %1, i32 noundef %2, ptr noundef %16, ptr noundef %18, ptr noundef %20, ptr noundef %22, ptr noundef %7)
  %24 = icmp sgt i32 %23, -1
  br i1 %24, label %25, label %27

25:                                               ; preds = %9
  %26 = xor i32 %23, %11
  br label %.loopexit

27:                                               ; preds = %9
  br i1 %10, label %9, label %.loopexit, !llvm.loop !160

.loopexit:                                        ; preds = %27, %25
  %.0 = phi i32 [ %26, %25 ], [ -1, %27 ]
  ret i32 %.0
}